; Function Attrs: nounwind uwtable
define range(i32 -4, 1) i32 @MOZ_Z_inflateSetDictionary(ptr noundef readonly captures(address_is_null) %0, ptr noundef %1, i32 noundef %2) local_unnamed_addr #2 {
  %4 = icmp eq ptr %0, null
  br i1 %4, label %83, label %5

5:                                                ; preds = %3
  %6 = getelementptr inbounds nuw i8, ptr %0, i64 56
  %7 = load ptr, ptr %6, align 8, !tbaa !3
  %8 = icmp eq ptr %7, null
  br i1 %8, label %83, label %9

9:                                                ; preds = %5
  %10 = getelementptr inbounds nuw i8, ptr %7, i64 8
  %11 = load i32, ptr %10, align 8, !tbaa !16
  %.not = icmp eq i32 %11, 0
  %.pr = load i32, ptr %7, align 8, !tbaa !18
  %12 = icmp eq i32 %.pr, 10
  br i1 %.not, label %14, label %13

13:                                               ; preds = %9
  br i1 %12, label %.thread, label %83

14:                                               ; preds = %9
  br i1 %12, label %.thread, label %19

.thread:                                          ; preds = %13, %14
  %15 = tail call i64 @MOZ_Z_adler32(i64 noundef 0, ptr noundef null, i32 noundef 0) #10
  %16 = tail call i64 @MOZ_Z_adler32(i64 noundef %15, ptr noundef %1, i32 noundef %2) #10
  %17 = getelementptr inbounds nuw i8, ptr %7, i64 24
  %18 = load i64, ptr %17, align 8, !tbaa !48
  %.not21 = icmp eq i64 %16, %18
  br i1 %.not21, label %.thread._crit_edge, label %83

.thread._crit_edge:                               ; preds = %.thread
  %.pre = load ptr, ptr %6, align 8, !tbaa !3
  br label %19

19:                                               ; preds = %.thread._crit_edge, %14
  %20 = phi ptr [ %.pre, %.thread._crit_edge ], [ %7, %14 ]
  %21 = zext i32 %2 to i64
  %22 = getelementptr inbounds nuw i8, ptr %1, i64 %21
  %23 = getelementptr inbounds nuw i8, ptr %20, i64 64
  %24 = load ptr, ptr %23, align 8, !tbaa !33
  %25 = icmp eq ptr %24, null
  br i1 %25, label %26, label %36

26:                                               ; preds = %19
  %27 = getelementptr inbounds nuw i8, ptr %0, i64 64
  %28 = load ptr, ptr %27, align 8, !tbaa !39
  %29 = getelementptr inbounds nuw i8, ptr %0, i64 80
  %30 = load ptr, ptr %29, align 8, !tbaa !36
  %31 = getelementptr inbounds nuw i8, ptr %20, i64 48
  %32 = load i32, ptr %31, align 8, !tbaa !34
  %33 = shl nuw i32 1, %32
  %34 = tail call ptr %28(ptr noundef %30, i32 noundef %33, i32 noundef 1) #10
  store ptr %34, ptr %23, align 8, !tbaa !33
  %35 = icmp eq ptr %34, null
  br i1 %35, label %updatewindow.exit, label %36

36:                                               ; preds = %26, %19
  %37 = phi ptr [ %34, %26 ], [ %24, %19 ]
  %38 = getelementptr inbounds nuw i8, ptr %20, i64 52
  %39 = load i32, ptr %38, align 4, !tbaa !30
  %40 = icmp eq i32 %39, 0
  br i1 %40, label %41, label %47

41:                                               ; preds = %36
  %42 = getelementptr inbounds nuw i8, ptr %20, i64 48
  %43 = load i32, ptr %42, align 8, !tbaa !34
  %44 = shl nuw i32 1, %43
  store i32 %44, ptr %38, align 4, !tbaa !30
  %45 = getelementptr inbounds nuw i8, ptr %20, i64 60
  store i32 0, ptr %45, align 4, !tbaa !32
  %46 = getelementptr inbounds nuw i8, ptr %20, i64 56
  store i32 0, ptr %46, align 8, !tbaa !31
  br label %47

47:                                               ; preds = %41, %36
  %48 = phi i32 [ %44, %41 ], [ %39, %36 ]
  %.not.i = icmp ult i32 %2, %48
  br i1 %.not.i, label %56, label %49

49:                                               ; preds = %47
  %50 = zext i32 %48 to i64
  %51 = sub nsw i64 0, %50
  %52 = getelementptr inbounds i8, ptr %22, i64 %51
  tail call void @llvm.memcpy.p0.p0.i64(ptr noundef nonnull align 1 dereferenceable(1) %37, ptr noundef nonnull readonly align 1 dereferenceable(1) %52, i64 %50, i1 false)
  %53 = getelementptr inbounds nuw i8, ptr %20, i64 60
  store i32 0, ptr %53, align 4, !tbaa !32
  %54 = load i32, ptr %38, align 4, !tbaa !30
  %55 = getelementptr inbounds nuw i8, ptr %20, i64 56
  store i32 %54, ptr %55, align 8, !tbaa !31
  br label %81

56:                                               ; preds = %47
  %57 = getelementptr inbounds nuw i8, ptr %20, i64 60
  %58 = load i32, ptr %57, align 4, !tbaa !32
  %59 = sub i32 %48, %58
  %spec.select.i = tail call i32 @llvm.umin.i32(i32 %59, i32 %2)
  %60 = zext i32 %58 to i64
  %61 = getelementptr inbounds nuw i8, ptr %37, i64 %60
  %62 = zext i32 %spec.select.i to i64
  tail call void @llvm.memcpy.p0.p0.i64(ptr nonnull align 1 %61, ptr readonly align 1 %1, i64 %62, i1 false)
  %.not57.not.i = icmp ugt i32 %2, %59
  br i1 %.not57.not.i, label %63, label %71

63:                                               ; preds = %56
  %64 = sub i32 %2, %spec.select.i
  %65 = load ptr, ptr %23, align 8, !tbaa !33
  %66 = zext i32 %64 to i64
  %67 = sub nsw i64 0, %66
  %68 = getelementptr inbounds i8, ptr %22, i64 %67
  tail call void @llvm.memcpy.p0.p0.i64(ptr align 1 %65, ptr nonnull readonly align 1 %68, i64 %66, i1 false)
  store i32 %64, ptr %57, align 4, !tbaa !32
  %69 = load i32, ptr %38, align 4, !tbaa !30
  %70 = getelementptr inbounds nuw i8, ptr %20, i64 56
  store i32 %69, ptr %70, align 8, !tbaa !31
  br label %81

71:                                               ; preds = %56
  %72 = load i32, ptr %57, align 4, !tbaa !32
  %73 = add i32 %72, %spec.select.i
  %74 = load i32, ptr %38, align 4, !tbaa !30
  %75 = icmp eq i32 %73, %74
  %spec.store.select.i = select i1 %75, i32 0, i32 %73
  store i32 %spec.store.select.i, ptr %57, align 4
  %76 = getelementptr inbounds nuw i8, ptr %20, i64 56
  %77 = load i32, ptr %76, align 8, !tbaa !31
  %78 = icmp ult i32 %77, %74
  br i1 %78, label %79, label %81

79:                                               ; preds = %71
  %80 = add i32 %77, %spec.select.i
  store i32 %80, ptr %76, align 8, !tbaa !31
  br label %81

updatewindow.exit:                                ; preds = %26
  store i32 30, ptr %7, align 8, !tbaa !18
  br label %83

81:                                               ; preds = %63, %79, %71, %49
  %82 = getelementptr inbounds nuw i8, ptr %7, i64 12
  store i32 1, ptr %82, align 4, !tbaa !20
  br label %83

83:                                               ; preds = %.thread, %13, %3, %5, %81, %updatewindow.exit
  %.0 = phi i32 [ -4, %updatewindow.exit ], [ 0, %81 ], [ -2, %5 ], [ -2, %3 ], [ -2, %13 ], [ -3, %.thread ]
  ret i32 %.0
}